; Function Attrs: nounwind uwtable
define hidden void @Wayland_MaximizeWindow(ptr noundef readonly captures(none) %0, ptr noundef readonly captures(none) %1) local_unnamed_addr #0 {
  %3 = getelementptr inbounds nuw i8, ptr %0, i64 1656
  %4 = load ptr, ptr %3, align 8
  %5 = getelementptr inbounds nuw i8, ptr %1, i64 392
  %6 = load ptr, ptr %5, align 8
  %7 = getelementptr inbounds nuw i8, ptr %6, i64 402
  %8 = load i8, ptr %7, align 2, !range !5, !noundef !6
  %9 = trunc nuw i8 %8 to i1
  br i1 %9, label %10, label %15

10:                                               ; preds = %2
  %11 = load ptr, ptr @WAYLAND_wl_display_roundtrip, align 8
  %12 = getelementptr inbounds nuw i8, ptr %4, i64 8
  %13 = load ptr, ptr %12, align 8
  %14 = tail call i32 %11(ptr noundef %13) #15
  br label %15

15:                                               ; preds = %10, %2
  %16 = getelementptr inbounds nuw i8, ptr %1, i64 72
  %17 = load i64, ptr %16, align 8
  %18 = and i64 %17, 129
  %or.cond.not = icmp eq i64 %18, 128
  br i1 %or.cond.not, label %19, label %25

19:                                               ; preds = %15
  %20 = getelementptr inbounds nuw i8, ptr %6, i64 368
  %21 = load i32, ptr %20, align 8
  %.not17 = icmp eq i32 %21, 0
  br i1 %.not17, label %22, label %25

22:                                               ; preds = %19
  %23 = getelementptr inbounds nuw i8, ptr %6, i64 372
  %24 = load i32, ptr %23, align 4
  %.not18 = icmp eq i32 %24, 0
  br i1 %.not18, label %59, label %25

25:                                               ; preds = %22, %19, %15
  %26 = getelementptr inbounds nuw i8, ptr %6, i64 88
  %27 = load i32, ptr %26, align 8
  %28 = icmp eq i32 %27, 1
  br i1 %28, label %29, label %59

29:                                               ; preds = %25
  %30 = getelementptr inbounds nuw i8, ptr %6, i64 64
  %31 = load ptr, ptr %30, align 8
  %32 = icmp eq ptr %31, null
  br i1 %32, label %59, label %33

33:                                               ; preds = %29
  %34 = getelementptr inbounds nuw i8, ptr %6, i64 16
  %35 = load ptr, ptr %34, align 8
  %36 = load ptr, ptr @WAYLAND_wl_proxy_marshal_flags, align 8
  %37 = load ptr, ptr @WAYLAND_wl_proxy_get_version, align 8
  %38 = tail call i32 %37(ptr noundef %35) #15
  %39 = tail call ptr (ptr, i32, ptr, i32, i32, ...) %36(ptr noundef %35, i32 noundef 6, ptr noundef null, i32 noundef %38, i32 noundef 0) #15
  %40 = load ptr, ptr %30, align 8
  %41 = load ptr, ptr @WAYLAND_wl_proxy_marshal_flags, align 8
  %42 = load ptr, ptr @WAYLAND_wl_proxy_get_version, align 8
  %43 = tail call i32 %42(ptr noundef %40) #15
  %44 = tail call ptr (ptr, i32, ptr, i32, i32, ...) %41(ptr noundef %40, i32 noundef 9, ptr noundef null, i32 noundef %43, i32 noundef 0) #15
  %45 = getelementptr inbounds nuw i8, ptr %6, i64 372
  %46 = load i32, ptr %45, align 4
  %47 = add nsw i32 %46, 1
  store i32 %47, ptr %45, align 4
  %48 = getelementptr inbounds nuw i8, ptr %4, i64 8
  %49 = load ptr, ptr %48, align 8
  %50 = load ptr, ptr @WAYLAND_wl_proxy_marshal_flags, align 8
  %51 = load ptr, ptr @WAYLAND_wl_proxy_get_version, align 8
  %52 = tail call i32 %51(ptr noundef %49) #15
  %53 = tail call ptr (ptr, i32, ptr, i32, i32, ...) %50(ptr noundef %49, i32 noundef 0, ptr noundef nonnull @wl_callback_interface, i32 noundef %52, i32 noundef 0, ptr noundef null) #15
  %54 = load i32, ptr %1, align 8
  %55 = zext i32 %54 to i64
  %56 = inttoptr i64 %55 to ptr
  %57 = load ptr, ptr @WAYLAND_wl_proxy_add_listener, align 8
  %58 = tail call i32 %57(ptr noundef %53, ptr noundef nonnull @maximized_restored_deadline_listener, ptr noundef %56) #15
  br label %59

59:                                               ; preds = %25, %33, %29, %22
  ret void
}